target datalayout = "e-m:e-p270:32:32-p271:32:32-p272:64:64-i64:64-i128:128-f80:128-n8:16:32:64-S128"
target triple = "x86_64-pc-linux-gnu"

%struct.PyVarObject = type { %struct._object, i64 }
%struct._object = type { i64, ptr }
%"struct.nanobind::dlpack::dtype" = type { i8, i8, i16 }
%"struct.nanobind::detail::managed_dltensor" = type { %"struct.nanobind::dlpack::dltensor", ptr, ptr }
%"struct.nanobind::dlpack::dltensor" = type { ptr, %"struct.nanobind::dlpack::device", i32, %"struct.nanobind::dlpack::dtype", ptr, ptr, i64 }
%"struct.nanobind::dlpack::device" = type { i32, i32 }
%"struct.nanobind::detail::ndarray_handle" = type <{ ptr, %"struct.std::atomic", ptr, ptr, i8, i8, i8, i8, [4 x i8] }>
%"struct.std::atomic" = type { %"struct.std::__atomic_base" }
%"struct.std::__atomic_base" = type { i64 }
%"struct.nanobind::detail::nb_ndarray" = type { %struct._object, ptr }
%struct.PyTupleObject = type { %struct.PyVarObject, [1 x ptr] }

; Function Attrs: inlinehint mustprogress uwtable
define internal void @_ZL10_Py_DECREFP7_object(ptr noundef %0) #8 {
  %2 = alloca ptr, align 8
  store ptr %0, ptr %2, align 8
  %3 = load ptr, ptr %2, align 8
  %4 = getelementptr inbounds nuw %struct._object, ptr %3, i32 0, i32 0
  %5 = load i64, ptr %4, align 8
  %6 = add nsw i64 %5, -1
  store i64 %6, ptr %4, align 8
  %7 = icmp ne i64 %6, 0
  br i1 %7, label %8, label %9

8:                                                ; preds = %1
  br label %11

9:                                                ; preds = %1
  %10 = load ptr, ptr %2, align 8
  call void @_Py_Dealloc(ptr noundef %10)
  br label %11

11:                                               ; preds = %9, %8
  ret void
}

; Function Attrs: inlinehint mustprogress uwtable
define internal void @_ZL11_Py_XDECREFP7_object(ptr noundef %0) #8 {
  %2 = alloca ptr, align 8
  store ptr %0, ptr %2, align 8
  %3 = load ptr, ptr %2, align 8
  %4 = icmp ne ptr %3, null
  br i1 %4, label %5, label %7

5:                                                ; preds = %1
  %6 = load ptr, ptr %2, align 8
  call void @_ZL10_Py_DECREFP7_object(ptr noundef %6)
  br label %7

7:                                                ; preds = %5, %1
  ret void
}

; Function Attrs: mustprogress uwtable
define internal noundef ptr @_ZN8nanobind6detailL24nb_ndarray_dlpack_deviceEP7_objectP11_typeobjectPKS2_lS2_(ptr noundef %0, ptr noundef %1, ptr noundef %2, i64 noundef %3, ptr noundef %4) #12 {
  %6 = alloca ptr, align 8
  %7 = alloca ptr, align 8
  %8 = alloca ptr, align 8
  %9 = alloca ptr, align 8
  %10 = alloca i64, align 8
  %11 = alloca ptr, align 8
  %12 = alloca ptr, align 8
  %13 = alloca ptr, align 8
  %14 = alloca ptr, align 8
  %15 = alloca ptr, align 8
  %16 = alloca ptr, align 8
  %17 = alloca i32, align 4
  store ptr %0, ptr %7, align 8
  store ptr %1, ptr %8, align 8
  store ptr %2, ptr %9, align 8
  store i64 %3, ptr %10, align 8
  store ptr %4, ptr %11, align 8
  call void @llvm.lifetime.start.p0(i64 8, ptr %12) #17
  %18 = load ptr, ptr %7, align 8
  store ptr %18, ptr %12, align 8
  call void @llvm.lifetime.start.p0(i64 8, ptr %13) #17
  %19 = load ptr, ptr %12, align 8
  %20 = getelementptr inbounds nuw %"struct.nanobind::detail::nb_ndarray", ptr %19, i32 0, i32 1
  %21 = load ptr, ptr %20, align 8
  %22 = getelementptr inbounds nuw %"struct.nanobind::detail::ndarray_handle", ptr %21, i32 0, i32 0
  %23 = load ptr, ptr %22, align 8
  %24 = getelementptr inbounds nuw %"struct.nanobind::detail::managed_dltensor", ptr %23, i32 0, i32 0
  store ptr %24, ptr %13, align 8
  call void @llvm.lifetime.start.p0(i64 8, ptr %14) #17
  %25 = call ptr @PyTuple_New(i64 noundef 2)
  store ptr %25, ptr %14, align 8
  call void @llvm.lifetime.start.p0(i64 8, ptr %15) #17
  %26 = load ptr, ptr %13, align 8
  %27 = getelementptr inbounds nuw %"struct.nanobind::dlpack::dltensor", ptr %26, i32 0, i32 1
  %28 = getelementptr inbounds nuw %"struct.nanobind::dlpack::device", ptr %27, i32 0, i32 0
  %29 = load i32, ptr %28, align 8
  %30 = sext i32 %29 to i64
  %31 = call ptr @PyLong_FromLong(i64 noundef %30)
  store ptr %31, ptr %15, align 8
  call void @llvm.lifetime.start.p0(i64 8, ptr %16) #17
  %32 = load ptr, ptr %13, align 8
  %33 = getelementptr inbounds nuw %"struct.nanobind::dlpack::dltensor", ptr %32, i32 0, i32 1
  %34 = getelementptr inbounds nuw %"struct.nanobind::dlpack::device", ptr %33, i32 0, i32 1
  %35 = load i32, ptr %34, align 4
  %36 = sext i32 %35 to i64
  %37 = call ptr @PyLong_FromLong(i64 noundef %36)
  store ptr %37, ptr %16, align 8
  %38 = load ptr, ptr %14, align 8
  %39 = icmp ne ptr %38, null
  br i1 %39, label %40, label %46

40:                                               ; preds = %5
  %41 = load ptr, ptr %15, align 8
  %42 = icmp ne ptr %41, null
  br i1 %42, label %43, label %46

43:                                               ; preds = %40
  %44 = load ptr, ptr %16, align 8
  %45 = icmp ne ptr %44, null
  br i1 %45, label %50, label %46

46:                                               ; preds = %43, %40, %5
  %47 = load ptr, ptr %14, align 8
  call void @_ZL11_Py_XDECREFP7_object(ptr noundef %47)
  %48 = load ptr, ptr %15, align 8
  call void @_ZL11_Py_XDECREFP7_object(ptr noundef %48)
  %49 = load ptr, ptr %16, align 8
  call void @_ZL11_Py_XDECREFP7_object(ptr noundef %49)
  store ptr null, ptr %6, align 8
  store i32 1, ptr %17, align 4
  br label %60

50:                                               ; preds = %43
  %51 = load ptr, ptr %15, align 8
  %52 = load ptr, ptr %14, align 8
  %53 = getelementptr inbounds nuw %struct.PyTupleObject, ptr %52, i32 0, i32 1
  %54 = getelementptr inbounds [1 x ptr], ptr %53, i64 0, i64 0
  store ptr %51, ptr %54, align 8
  %55 = load ptr, ptr %16, align 8
  %56 = load ptr, ptr %14, align 8
  %57 = getelementptr inbounds nuw %struct.PyTupleObject, ptr %56, i32 0, i32 1
  %58 = getelementptr inbounds [1 x ptr], ptr %57, i64 0, i64 1
  store ptr %55, ptr %58, align 8
  %59 = load ptr, ptr %14, align 8
  store ptr %59, ptr %6, align 8
  store i32 1, ptr %17, align 4
  br label %60

60:                                               ; preds = %50, %46
  call void @llvm.lifetime.end.p0(i64 8, ptr %16) #17
  call void @llvm.lifetime.end.p0(i64 8, ptr %15) #17
  call void @llvm.lifetime.end.p0(i64 8, ptr %14) #17
  call void @llvm.lifetime.end.p0(i64 8, ptr %13) #17
  call void @llvm.lifetime.end.p0(i64 8, ptr %12) #17
  %61 = load ptr, ptr %6, align 8
  ret ptr %61
}