; Function Attrs: mustprogress uwtable
define internal noundef ptr @_ZN8nanobind6detailL24nb_ndarray_dlpack_deviceEP7_objectP11_typeobjectPKS2_lS2_(ptr noundef readonly captures(none) %0, ptr readnone captures(none) %1, ptr readnone captures(none) %2, i64 %3, ptr readnone captures(none) %4) #11 {
  %6 = getelementptr inbounds nuw i8, ptr %0, i64 16
  %7 = load ptr, ptr %6, align 8
  %8 = load ptr, ptr %7, align 8
  %9 = tail call ptr @PyTuple_New(i64 noundef 2)
  %10 = getelementptr inbounds nuw i8, ptr %8, i64 8
  %11 = load i32, ptr %10, align 8
  %12 = sext i32 %11 to i64
  %13 = tail call ptr @PyLong_FromLong(i64 noundef %12)
  %14 = getelementptr inbounds nuw i8, ptr %8, i64 12
  %15 = load i32, ptr %14, align 4
  %16 = sext i32 %15 to i64
  %17 = tail call ptr @PyLong_FromLong(i64 noundef %16)
  %18 = icmp ne ptr %9, null
  %19 = icmp ne ptr %13, null
  %or.cond = select i1 %18, i1 %19, i1 false
  %20 = icmp ne ptr %17, null
  %or.cond3 = select i1 %or.cond, i1 %20, i1 false
  br i1 %or.cond3, label %34, label %21

21:                                               ; preds = %5
  %.not.i = icmp eq ptr %9, null
  br i1 %.not.i, label %_ZL11_Py_XDECREFP7_object.exit, label %22

22:                                               ; preds = %21
  %23 = load i64, ptr %9, align 8
  %24 = add nsw i64 %23, -1
  store i64 %24, ptr %9, align 8
  %.not.i.i = icmp eq i64 %24, 0
  br i1 %.not.i.i, label %25, label %_ZL11_Py_XDECREFP7_object.exit

25:                                               ; preds = %22
  tail call void @_Py_Dealloc(ptr noundef nonnull %9)
  br label %_ZL11_Py_XDECREFP7_object.exit

_ZL11_Py_XDECREFP7_object.exit:                   ; preds = %21, %22, %25
  %.not.i22 = icmp eq ptr %13, null
  br i1 %.not.i22, label %_ZL11_Py_XDECREFP7_object.exit24, label %26

26:                                               ; preds = %_ZL11_Py_XDECREFP7_object.exit
  %27 = load i64, ptr %13, align 8
  %28 = add nsw i64 %27, -1
  store i64 %28, ptr %13, align 8
  %.not.i.i23 = icmp eq i64 %28, 0
  br i1 %.not.i.i23, label %29, label %_ZL11_Py_XDECREFP7_object.exit24

29:                                               ; preds = %26
  tail call void @_Py_Dealloc(ptr noundef nonnull %13)
  br label %_ZL11_Py_XDECREFP7_object.exit24

_ZL11_Py_XDECREFP7_object.exit24:                 ; preds = %_ZL11_Py_XDECREFP7_object.exit, %26, %29
  %.not.i25 = icmp eq ptr %17, null
  br i1 %.not.i25, label %_ZL11_Py_XDECREFP7_object.exit27, label %30

30:                                               ; preds = %_ZL11_Py_XDECREFP7_object.exit24
  %31 = load i64, ptr %17, align 8
  %32 = add nsw i64 %31, -1
  store i64 %32, ptr %17, align 8
  %.not.i.i26 = icmp eq i64 %32, 0
  br i1 %.not.i.i26, label %33, label %_ZL11_Py_XDECREFP7_object.exit27

33:                                               ; preds = %30
  tail call void @_Py_Dealloc(ptr noundef nonnull %17)
  br label %_ZL11_Py_XDECREFP7_object.exit27

34:                                               ; preds = %5
  %35 = getelementptr inbounds nuw i8, ptr %9, i64 24
  store ptr %13, ptr %35, align 8
  %36 = getelementptr inbounds nuw i8, ptr %9, i64 32
  store ptr %17, ptr %36, align 8
  br label %_ZL11_Py_XDECREFP7_object.exit27

_ZL11_Py_XDECREFP7_object.exit27:                 ; preds = %33, %30, %_ZL11_Py_XDECREFP7_object.exit24, %34
  %.0 = phi ptr [ %9, %34 ], [ null, %_ZL11_Py_XDECREFP7_object.exit24 ], [ null, %30 ], [ null, %33 ]
  ret ptr %.0
}